; Function Attrs: mustprogress uwtable
define noundef double @_ZNK8QuantLib27StrippedCappedFlooredCoupon14effectiveFloorEv(ptr nocapture noundef nonnull readonly align 8 dereferenceable(192) %this) local_unnamed_addr #8 align 2 {
entry:
  %underlying_ = getelementptr inbounds nuw i8, ptr %this, i64 176
  %0 = load ptr, ptr %underlying_, align 8, !tbaa !50
  %cmp.not.i = icmp eq ptr %0, null
  br i1 %cmp.not.i, label %cond.false.i, label %_ZNK5boost10shared_ptrIN8QuantLib19CappedFlooredCouponEEptEv.exit, !prof !52

cond.false.i:                                     ; preds = %entry
  tail call void @_ZN5boost16assertion_failedEPKcS1_S1_l(ptr noundef nonnull @.str.11, ptr noundef nonnull @__PRETTY_FUNCTION__._ZNK5boost10shared_ptrIN8QuantLib19CappedFlooredCouponEEptEv, ptr noundef nonnull @.str.12, i64 noundef 784)
  %.pre.i = load ptr, ptr %underlying_, align 8, !tbaa !50
  br label %_ZNK5boost10shared_ptrIN8QuantLib19CappedFlooredCouponEEptEv.exit

_ZNK5boost10shared_ptrIN8QuantLib19CappedFlooredCouponEEptEv.exit: ; preds = %entry, %cond.false.i
  %1 = phi ptr [ %0, %entry ], [ %.pre.i, %cond.false.i ]
  %call2 = tail call noundef double @_ZNK8QuantLib19CappedFlooredCoupon14effectiveFloorEv(ptr noundef nonnull align 8 dereferenceable(216) %1)
  ret double %call2
}